; Function Attrs: mustprogress uwtable
define void @_ZN10open_spiel6ThreadC2ESt8functionIFvvEE(ptr nocapture noundef nonnull writeonly align 8 dereferenceable(8) %0, ptr noundef %1) unnamed_addr #0 align 2 personality ptr @__gxx_personality_v0 {
  %3 = tail call noalias noundef nonnull dereferenceable(8) ptr @_Znwm(i64 noundef 8) #11
  invoke void @_ZNSt6threadC2IRSt8functionIFvvEEJEvEEOT_DpOT0_(ptr noundef nonnull align 8 dereferenceable(8) %3, ptr noundef nonnull align 8 dereferenceable(32) %1)
          to label %_ZN10open_spiel6Thread10ThreadImplCI2St6threadIRSt8functionIFvvEEJEvEEOT_DpOT0_.exit unwind label %4

_ZN10open_spiel6Thread10ThreadImplCI2St6threadIRSt8functionIFvvEEJEvEEOT_DpOT0_.exit: ; preds = %2
  store ptr %3, ptr %0, align 8
  ret void

4:                                                ; preds = %2
  %5 = landingpad { ptr, i32 }
          cleanup
  tail call void @_ZdlPvm(ptr noundef nonnull %3, i64 noundef 8) #12
  resume { ptr, i32 } %5
}